target datalayout = "e-m:e-p270:32:32-p271:32:32-p272:64:64-i64:64-i128:128-f80:128-n8:16:32:64-S128"
target triple = "x86_64-pc-linux-gnu"

%struct.pg_enc2name = type { ptr, i32 }
%struct.pg_wchar_tbl = type { ptr, ptr, ptr, ptr, ptr, ptr, i32 }

@DatabaseEncoding = internal global ptr @pg_enc2name_tbl, align 8
@pg_wchar_table = external constant [0 x %struct.pg_wchar_tbl], align 8

; Function Attrs: nounwind uwtable
define dso_local i32 @GetDatabaseEncoding() #1 {
  %1 = load ptr, ptr @DatabaseEncoding, align 8
  %2 = getelementptr inbounds nuw %struct.pg_enc2name, ptr %1, i32 0, i32 1
  %3 = load i32, ptr %2, align 8
  ret i32 %3
}

; Function Attrs: nounwind uwtable
define dso_local i32 @pg_mblen(ptr noundef %0) #1 {
  %2 = alloca ptr, align 8
  store ptr %0, ptr %2, align 8
  %3 = load ptr, ptr @DatabaseEncoding, align 8
  %4 = getelementptr inbounds nuw %struct.pg_enc2name, ptr %3, i32 0, i32 1
  %5 = load i32, ptr %4, align 8
  %6 = zext i32 %5 to i64
  %7 = getelementptr inbounds nuw [0 x %struct.pg_wchar_tbl], ptr @pg_wchar_table, i64 0, i64 %6
  %8 = getelementptr inbounds nuw %struct.pg_wchar_tbl, ptr %7, i32 0, i32 2
  %9 = load ptr, ptr %8, align 8
  %10 = load ptr, ptr %2, align 8
  %11 = call i32 %9(ptr noundef %10)
  ret i32 %11
}

; Function Attrs: nounwind uwtable
define dso_local i32 @pg_database_encoding_max_length() #1 {
  %1 = call i32 @GetDatabaseEncoding()
  %2 = sext i32 %1 to i64
  %3 = getelementptr inbounds [0 x %struct.pg_wchar_tbl], ptr @pg_wchar_table, i64 0, i64 %2
  %4 = getelementptr inbounds nuw %struct.pg_wchar_tbl, ptr %3, i32 0, i32 6
  %5 = load i32, ptr %4, align 8
  ret i32 %5
}

; Function Attrs: nounwind uwtable
define dso_local i32 @pg_mbstrlen_with_len(ptr noundef %0, i32 noundef %1) #1 {
  %3 = alloca i32, align 4
  %4 = alloca ptr, align 8
  %5 = alloca i32, align 4
  %6 = alloca i32, align 4
  %7 = alloca i32, align 4
  %8 = alloca i32, align 4
  store ptr %0, ptr %4, align 8
  store i32 %1, ptr %5, align 4
  call void @llvm.lifetime.start.p0(i64 4, ptr %6) #9
  store i32 0, ptr %6, align 4
  %9 = call i32 @pg_database_encoding_max_length()
  %10 = icmp eq i32 %9, 1
  br i1 %10, label %11, label %13

11:                                               ; preds = %2
  %12 = load i32, ptr %5, align 4
  store i32 %12, ptr %3, align 4
  store i32 1, ptr %7, align 4
  br label %38

13:                                               ; preds = %2
  br label %14

14:                                               ; preds = %24, %13
  %15 = load i32, ptr %5, align 4
  %16 = icmp sgt i32 %15, 0
  br i1 %16, label %17, label %22

17:                                               ; preds = %14
  %18 = load ptr, ptr %4, align 8
  %19 = load i8, ptr %18, align 1
  %20 = sext i8 %19 to i32
  %21 = icmp ne i32 %20, 0
  br label %22

22:                                               ; preds = %17, %14
  %23 = phi i1 [ false, %14 ], [ %21, %17 ]
  br i1 %23, label %24, label %36

24:                                               ; preds = %22
  call void @llvm.lifetime.start.p0(i64 4, ptr %8) #9
  %25 = load ptr, ptr %4, align 8
  %26 = call i32 @pg_mblen(ptr noundef %25)
  store i32 %26, ptr %8, align 4
  %27 = load i32, ptr %8, align 4
  %28 = load i32, ptr %5, align 4
  %29 = sub i32 %28, %27
  store i32 %29, ptr %5, align 4
  %30 = load i32, ptr %8, align 4
  %31 = load ptr, ptr %4, align 8
  %32 = sext i32 %30 to i64
  %33 = getelementptr inbounds i8, ptr %31, i64 %32
  store ptr %33, ptr %4, align 8
  %34 = load i32, ptr %6, align 4
  %35 = add i32 %34, 1
  store i32 %35, ptr %6, align 4
  call void @llvm.lifetime.end.p0(i64 4, ptr %8) #9
  br label %14, !llvm.loop !12

36:                                               ; preds = %22
  %37 = load i32, ptr %6, align 4
  store i32 %37, ptr %3, align 4
  store i32 1, ptr %7, align 4
  br label %38

38:                                               ; preds = %36, %11
  call void @llvm.lifetime.end.p0(i64 4, ptr %6) #9
  %39 = load i32, ptr %3, align 4
  ret i32 %39
}