; Function Attrs: nounwind uwtable
define dso_local i32 @pg_mbstrlen_with_len(ptr noundef %0, i32 noundef %1) local_unnamed_addr #0 {
  %3 = load ptr, ptr @DatabaseEncoding, align 8
  %4 = getelementptr inbounds nuw i8, ptr %3, i64 8
  %5 = load i32, ptr %4, align 8
  %6 = sext i32 %5 to i64
  %7 = getelementptr inbounds [0 x %struct.pg_wchar_tbl], ptr @pg_wchar_table, i64 0, i64 %6, i32 6
  %8 = load i32, ptr %7, align 8
  %9 = icmp eq i32 %8, 1
  br i1 %9, label %.critedge, label %.preheader

.preheader:                                       ; preds = %2
  %10 = icmp sgt i32 %1, 0
  br i1 %10, label %.lr.ph, label %.critedge

.lr.ph:                                           ; preds = %.preheader, %12
  %.01015 = phi i32 [ %23, %12 ], [ 0, %.preheader ]
  %.01114 = phi i32 [ %20, %12 ], [ %1, %.preheader ]
  %.01213 = phi ptr [ %22, %12 ], [ %0, %.preheader ]
  %11 = load i8, ptr %.01213, align 1
  %.not = icmp eq i8 %11, 0
  br i1 %.not, label %.critedge, label %12

12:                                               ; preds = %.lr.ph
  %13 = load ptr, ptr @DatabaseEncoding, align 8
  %14 = getelementptr inbounds nuw i8, ptr %13, i64 8
  %15 = load i32, ptr %14, align 8
  %16 = zext i32 %15 to i64
  %17 = getelementptr inbounds nuw [0 x %struct.pg_wchar_tbl], ptr @pg_wchar_table, i64 0, i64 %16, i32 2
  %18 = load ptr, ptr %17, align 8
  %19 = tail call i32 %18(ptr noundef nonnull %.01213) #13
  %20 = sub i32 %.01114, %19
  %21 = sext i32 %19 to i64
  %22 = getelementptr inbounds i8, ptr %.01213, i64 %21
  %23 = add i32 %.01015, 1
  %24 = icmp sgt i32 %20, 0
  br i1 %24, label %.lr.ph, label %.critedge, !llvm.loop !9

.critedge:                                        ; preds = %12, %.lr.ph, %.preheader, %2
  %.0 = phi i32 [ %1, %2 ], [ 0, %.preheader ], [ %23, %12 ], [ %.01015, %.lr.ph ]
  ret i32 %.0
}